target datalayout = "e-m:e-p270:32:32-p271:32:32-p272:64:64-i64:64-i128:128-f80:128-n8:16:32:64-S128"
target triple = "x86_64-unknown-linux-gnu"

%"struct.Imf_3_2::DeepScanLineInputFile::Data" = type <{ %"class.std::mutex", %"class.Imf_3_2::Header", i32, [4 x i8], %"class.Imf_3_2::DeepFrameBuffer", i32, i32, i32, i32, i32, [4 x i8], %"class.std::vector", i8, [3 x i8], i32, %"class.std::vector", %"class.std::vector", %"class.std::vector.11", %"class.std::vector.16", i32, i32, i32, i8, [3 x i8], ptr, i8, i8, [6 x i8], %"class.Imf_3_2::Array2D", %"class.Imf_3_2::Array", %"class.Imf_3_2::Array.21", ptr, i32, i32, i8, [7 x i8], %"class.Imf_3_2::Array.22", ptr, i32, i32, ptr, i8, [7 x i8] }>
%"class.std::mutex" = type { %"class.std::__mutex_base" }
%"class.std::__mutex_base" = type { %union.pthread_mutex_t }
%union.pthread_mutex_t = type { %struct.__pthread_mutex_s }
%struct.__pthread_mutex_s = type { i32, i32, i32, i32, i32, i16, i16, %struct.__pthread_internal_list }
%struct.__pthread_internal_list = type { ptr, ptr }
%"class.Imf_3_2::Header" = type <{ %"class.std::map", i8, [7 x i8] }>
%"class.std::map" = type { %"class.std::_Rb_tree" }
%"class.std::_Rb_tree" = type { %"struct.std::_Rb_tree<Imf_3_2::Name, std::pair<const Imf_3_2::Name, Imf_3_2::Attribute *>, std::_Select1st<std::pair<const Imf_3_2::Name, Imf_3_2::Attribute *>>, std::less<Imf_3_2::Name>>::_Rb_tree_impl" }
%"struct.std::_Rb_tree<Imf_3_2::Name, std::pair<const Imf_3_2::Name, Imf_3_2::Attribute *>, std::_Select1st<std::pair<const Imf_3_2::Name, Imf_3_2::Attribute *>>, std::less<Imf_3_2::Name>>::_Rb_tree_impl" = type { %"struct.std::_Rb_tree_key_compare", %"struct.std::_Rb_tree_header" }
%"struct.std::_Rb_tree_key_compare" = type { %"struct.std::less" }
%"struct.std::less" = type { i8 }
%"struct.std::_Rb_tree_header" = type { %"struct.std::_Rb_tree_node_base", i64 }
%"struct.std::_Rb_tree_node_base" = type { i32, ptr, ptr, ptr }
%"class.Imf_3_2::DeepFrameBuffer" = type { %"class.std::map.3", %"struct.Imf_3_2::Slice" }
%"class.std::map.3" = type { %"class.std::_Rb_tree.4" }
%"class.std::_Rb_tree.4" = type { %"struct.std::_Rb_tree<Imf_3_2::Name, std::pair<const Imf_3_2::Name, Imf_3_2::DeepSlice>, std::_Select1st<std::pair<const Imf_3_2::Name, Imf_3_2::DeepSlice>>, std::less<Imf_3_2::Name>>::_Rb_tree_impl" }
%"struct.std::_Rb_tree<Imf_3_2::Name, std::pair<const Imf_3_2::Name, Imf_3_2::DeepSlice>, std::_Select1st<std::pair<const Imf_3_2::Name, Imf_3_2::DeepSlice>>, std::less<Imf_3_2::Name>>::_Rb_tree_impl" = type { %"struct.std::_Rb_tree_key_compare", %"struct.std::_Rb_tree_header" }
%"struct.Imf_3_2::Slice" = type <{ i32, [4 x i8], ptr, i64, i64, i32, i32, double, i8, i8, [6 x i8] }>
%"class.std::vector" = type { %"struct.std::_Vector_base" }
%"struct.std::_Vector_base" = type { %"struct.std::_Vector_base<unsigned long, std::allocator<unsigned long>>::_Vector_impl" }
%"struct.std::_Vector_base<unsigned long, std::allocator<unsigned long>>::_Vector_impl" = type { %"struct.std::_Vector_base<unsigned long, std::allocator<unsigned long>>::_Vector_impl_data" }
%"struct.std::_Vector_base<unsigned long, std::allocator<unsigned long>>::_Vector_impl_data" = type { ptr, ptr, ptr }
%"class.std::vector.11" = type { %"struct.std::_Vector_base.12" }
%"struct.std::_Vector_base.12" = type { %"struct.std::_Vector_base<Imf_3_2::(anonymous namespace)::InSliceInfo *, std::allocator<Imf_3_2::(anonymous namespace)::InSliceInfo *>>::_Vector_impl" }
%"struct.std::_Vector_base<Imf_3_2::(anonymous namespace)::InSliceInfo *, std::allocator<Imf_3_2::(anonymous namespace)::InSliceInfo *>>::_Vector_impl" = type { %"struct.std::_Vector_base<Imf_3_2::(anonymous namespace)::InSliceInfo *, std::allocator<Imf_3_2::(anonymous namespace)::InSliceInfo *>>::_Vector_impl_data" }
%"struct.std::_Vector_base<Imf_3_2::(anonymous namespace)::InSliceInfo *, std::allocator<Imf_3_2::(anonymous namespace)::InSliceInfo *>>::_Vector_impl_data" = type { ptr, ptr, ptr }
%"class.std::vector.16" = type { %"struct.std::_Vector_base.17" }
%"struct.std::_Vector_base.17" = type { %"struct.std::_Vector_base<Imf_3_2::(anonymous namespace)::LineBuffer *, std::allocator<Imf_3_2::(anonymous namespace)::LineBuffer *>>::_Vector_impl" }
%"struct.std::_Vector_base<Imf_3_2::(anonymous namespace)::LineBuffer *, std::allocator<Imf_3_2::(anonymous namespace)::LineBuffer *>>::_Vector_impl" = type { %"struct.std::_Vector_base<Imf_3_2::(anonymous namespace)::LineBuffer *, std::allocator<Imf_3_2::(anonymous namespace)::LineBuffer *>>::_Vector_impl_data" }
%"struct.std::_Vector_base<Imf_3_2::(anonymous namespace)::LineBuffer *, std::allocator<Imf_3_2::(anonymous namespace)::LineBuffer *>>::_Vector_impl_data" = type { ptr, ptr, ptr }
%"class.Imf_3_2::Array2D" = type { i64, i64, ptr }
%"class.Imf_3_2::Array" = type { i64, ptr }
%"class.Imf_3_2::Array.21" = type { i64, ptr }
%"class.Imf_3_2::Array.22" = type { i64, ptr }
%"class.Imf_3_2::DeepScanLineInputFile" = type { %"class.Imf_3_2::GenericInputFile", ptr }
%"class.Imf_3_2::GenericInputFile" = type { ptr }
%"struct.Imf_3_2::InputStreamMutex" = type { %"class.std::mutex", ptr, i64 }

@_ZTVN7Imf_3_221DeepScanLineInputFileE = unnamed_addr constant { [4 x ptr] } { [4 x ptr] [ptr null, ptr @_ZTIN7Imf_3_221DeepScanLineInputFileE, ptr @_ZN7Imf_3_221DeepScanLineInputFileD1Ev, ptr @_ZN7Imf_3_221DeepScanLineInputFileD0Ev] }, align 8
@_ZN7Imf_3_221DeepScanLineInputFile4DataC1Ei = hidden unnamed_addr alias void (ptr, i32), ptr @_ZN7Imf_3_221DeepScanLineInputFile4DataC2Ei
@_ZN7Imf_3_221DeepScanLineInputFile4DataD1Ev = hidden unnamed_addr alias void (ptr), ptr @_ZN7Imf_3_221DeepScanLineInputFile4DataD2Ev

; Function Attrs: mustprogress nounwind uwtable
define linkonce_odr hidden void @_ZNSt12__mutex_baseC2Ev(ptr noundef nonnull align 8 dereferenceable(40) %this) unnamed_addr #5 comdat align 2 {
entry:
  %this.addr = alloca ptr, align 8
  store ptr %this, ptr %this.addr, align 8
  %this1 = load ptr, ptr %this.addr, align 8
  %_M_mutex = getelementptr inbounds %"class.std::__mutex_base", ptr %this1, i32 0, i32 0
  call void @llvm.memset.p0.i64(ptr align 8 %_M_mutex, i8 0, i64 40, i1 false)
  %__kind = getelementptr inbounds %struct.__pthread_mutex_s, ptr %_M_mutex, i32 0, i32 4
  store i32 0, ptr %__kind, align 8
  ret void
}

; Function Attrs: mustprogress nounwind uwtable
define linkonce_odr hidden void @_ZNSt5mutexC2Ev(ptr noundef nonnull align 8 dereferenceable(40) %this) unnamed_addr #5 comdat align 2 {
entry:
  %this.addr = alloca ptr, align 8
  store ptr %this, ptr %this.addr, align 8
  %this1 = load ptr, ptr %this.addr, align 8
  call void @_ZNSt12__mutex_baseC2Ev(ptr noundef nonnull align 8 dereferenceable(40) %this1) #3
  ret void
}

; Function Attrs: mustprogress nounwind uwtable
define linkonce_odr hidden void @_ZN7Imf_3_216InputStreamMutexC2Ev(ptr noundef nonnull align 8 dereferenceable(56) %this) unnamed_addr #5 comdat align 2 {
entry:
  %this.addr = alloca ptr, align 8
  store ptr %this, ptr %this.addr, align 8
  %this1 = load ptr, ptr %this.addr, align 8
  call void @_ZNSt5mutexC2Ev(ptr noundef nonnull align 8 dereferenceable(40) %this1) #3
  %is = getelementptr inbounds %"struct.Imf_3_2::InputStreamMutex", ptr %this1, i32 0, i32 1
  store ptr null, ptr %is, align 8
  %currentPosition = getelementptr inbounds %"struct.Imf_3_2::InputStreamMutex", ptr %this1, i32 0, i32 2
  store i64 0, ptr %currentPosition, align 8
  ret void
}

; Function Attrs: mustprogress uwtable
define void @_ZN7Imf_3_221DeepScanLineInputFileC2ERKNS_6HeaderEPNS_7IStreamEii(ptr noundef nonnull align 8 dereferenceable(16) %this, ptr noundef nonnull align 8 dereferenceable(49) %header, ptr noundef %is, i32 noundef %version, i32 noundef %numThreads) unnamed_addr #4 align 2 personality ptr @__gxx_personality_v0 {
entry:
  %this.addr = alloca ptr, align 8
  %header.addr = alloca ptr, align 8
  %is.addr = alloca ptr, align 8
  %version.addr = alloca i32, align 4
  %numThreads.addr = alloca i32, align 4
  %exn.slot = alloca ptr, align 8
  %ehselector.slot = alloca i32, align 4
  store ptr %this, ptr %this.addr, align 8
  store ptr %header, ptr %header.addr, align 8
  store ptr %is, ptr %is.addr, align 8
  store i32 %version, ptr %version.addr, align 4
  store i32 %numThreads, ptr %numThreads.addr, align 4
  %this1 = load ptr, ptr %this.addr, align 8
  call void @_ZN7Imf_3_216GenericInputFileC2Ev(ptr noundef nonnull align 8 dereferenceable(8) %this1)
  store ptr getelementptr inbounds ({ [4 x ptr] }, ptr @_ZTVN7Imf_3_221DeepScanLineInputFileE, i32 0, i32 0, i32 2), ptr %this1, align 8
  %_data = getelementptr inbounds %"class.Imf_3_2::DeepScanLineInputFile", ptr %this1, i32 0, i32 1
  %call = invoke noalias noundef nonnull ptr @_Znwm(i64 noundef 520) #19
          to label %invoke.cont unwind label %lpad

invoke.cont:                                      ; preds = %entry
  %0 = load i32, ptr %numThreads.addr, align 4
  invoke void @_ZN7Imf_3_221DeepScanLineInputFile4DataC1Ei(ptr noundef nonnull align 8 dereferenceable(513) %call, i32 noundef %0)
          to label %invoke.cont3 unwind label %lpad2

invoke.cont3:                                     ; preds = %invoke.cont
  store ptr %call, ptr %_data, align 8
  %call5 = invoke noalias noundef nonnull ptr @_Znwm(i64 noundef 56) #19
          to label %invoke.cont4 unwind label %lpad

invoke.cont4:                                     ; preds = %invoke.cont3
  call void @llvm.memset.p0.i64(ptr align 16 %call5, i8 0, i64 56, i1 false)
  call void @_ZN7Imf_3_216InputStreamMutexC2Ev(ptr noundef nonnull align 8 dereferenceable(56) %call5) #3
  %_data6 = getelementptr inbounds %"class.Imf_3_2::DeepScanLineInputFile", ptr %this1, i32 0, i32 1
  %1 = load ptr, ptr %_data6, align 8
  %_streamData = getelementptr inbounds %"struct.Imf_3_2::DeepScanLineInputFile::Data", ptr %1, i32 0, i32 40
  store ptr %call5, ptr %_streamData, align 8
  %_data7 = getelementptr inbounds %"class.Imf_3_2::DeepScanLineInputFile", ptr %this1, i32 0, i32 1
  %2 = load ptr, ptr %_data7, align 8
  %_deleteStream = getelementptr inbounds %"struct.Imf_3_2::DeepScanLineInputFile::Data", ptr %2, i32 0, i32 41
  store i8 0, ptr %_deleteStream, align 8
  %3 = load ptr, ptr %is.addr, align 8
  %_data8 = getelementptr inbounds %"class.Imf_3_2::DeepScanLineInputFile", ptr %this1, i32 0, i32 1
  %4 = load ptr, ptr %_data8, align 8
  %_streamData9 = getelementptr inbounds %"struct.Imf_3_2::DeepScanLineInputFile::Data", ptr %4, i32 0, i32 40
  %5 = load ptr, ptr %_streamData9, align 8
  %is10 = getelementptr inbounds %"struct.Imf_3_2::InputStreamMutex", ptr %5, i32 0, i32 1
  store ptr %3, ptr %is10, align 8
  %6 = load ptr, ptr %is.addr, align 8
  %vtable = load ptr, ptr %6, align 8
  %vfn = getelementptr inbounds ptr, ptr %vtable, i64 2
  %7 = load ptr, ptr %vfn, align 8
  %call12 = invoke noundef zeroext i1 %7(ptr noundef nonnull align 8 dereferenceable(40) %6)
          to label %invoke.cont11 unwind label %lpad

invoke.cont11:                                    ; preds = %invoke.cont4
  %_data13 = getelementptr inbounds %"class.Imf_3_2::DeepScanLineInputFile", ptr %this1, i32 0, i32 1
  %8 = load ptr, ptr %_data13, align 8
  %memoryMapped = getelementptr inbounds %"struct.Imf_3_2::DeepScanLineInputFile::Data", ptr %8, i32 0, i32 25
  %frombool = zext i1 %call12 to i8
  store i8 %frombool, ptr %memoryMapped, align 8
  %9 = load i32, ptr %version.addr, align 4
  %_data14 = getelementptr inbounds %"class.Imf_3_2::DeepScanLineInputFile", ptr %this1, i32 0, i32 1
  %10 = load ptr, ptr %_data14, align 8
  %version15 = getelementptr inbounds %"struct.Imf_3_2::DeepScanLineInputFile::Data", ptr %10, i32 0, i32 2
  store i32 %9, ptr %version15, align 8
  %11 = load ptr, ptr %header.addr, align 8
  invoke void @_ZN7Imf_3_221DeepScanLineInputFile10initializeERKNS_6HeaderE(ptr noundef nonnull align 8 dereferenceable(16) %this1, ptr noundef nonnull align 8 dereferenceable(49) %11)
          to label %invoke.cont17 unwind label %lpad16

invoke.cont17:                                    ; preds = %invoke.cont11
  br label %try.cont

lpad:                                             ; preds = %try.cont, %invoke.cont4, %invoke.cont3, %entry
  %12 = landingpad { ptr, i32 }
          cleanup
  %13 = extractvalue { ptr, i32 } %12, 0
  store ptr %13, ptr %exn.slot, align 8
  %14 = extractvalue { ptr, i32 } %12, 1
  store i32 %14, ptr %ehselector.slot, align 4
  br label %ehcleanup

lpad2:                                            ; preds = %invoke.cont
  %15 = landingpad { ptr, i32 }
          cleanup
  %16 = extractvalue { ptr, i32 } %15, 0
  store ptr %16, ptr %exn.slot, align 8
  %17 = extractvalue { ptr, i32 } %15, 1
  store i32 %17, ptr %ehselector.slot, align 4
  call void @_ZdlPv(ptr noundef %call) #17
  br label %ehcleanup

lpad16:                                           ; preds = %invoke.cont11
  %18 = landingpad { ptr, i32 }
          catch ptr null
  %19 = extractvalue { ptr, i32 } %18, 0
  store ptr %19, ptr %exn.slot, align 8
  %20 = extractvalue { ptr, i32 } %18, 1
  store i32 %20, ptr %ehselector.slot, align 4
  br label %catch

catch:                                            ; preds = %lpad16
  %exn = load ptr, ptr %exn.slot, align 8
  %21 = call ptr @__cxa_begin_catch(ptr %exn) #3
  %_data18 = getelementptr inbounds %"class.Imf_3_2::DeepScanLineInputFile", ptr %this1, i32 0, i32 1
  %22 = load ptr, ptr %_data18, align 8
  %tobool = icmp ne ptr %22, null
  br i1 %tobool, label %land.lhs.true, label %if.end

land.lhs.true:                                    ; preds = %catch
  %_data19 = getelementptr inbounds %"class.Imf_3_2::DeepScanLineInputFile", ptr %this1, i32 0, i32 1
  %23 = load ptr, ptr %_data19, align 8
  %_streamData20 = getelementptr inbounds %"struct.Imf_3_2::DeepScanLineInputFile::Data", ptr %23, i32 0, i32 40
  %24 = load ptr, ptr %_streamData20, align 8
  %tobool21 = icmp ne ptr %24, null
  br i1 %tobool21, label %if.then, label %if.end

if.then:                                          ; preds = %land.lhs.true
  %_data22 = getelementptr inbounds %"class.Imf_3_2::DeepScanLineInputFile", ptr %this1, i32 0, i32 1
  %25 = load ptr, ptr %_data22, align 8
  %_streamData23 = getelementptr inbounds %"struct.Imf_3_2::DeepScanLineInputFile::Data", ptr %25, i32 0, i32 40
  %26 = load ptr, ptr %_streamData23, align 8
  %isnull = icmp eq ptr %26, null
  br i1 %isnull, label %delete.end, label %delete.notnull

delete.notnull:                                   ; preds = %if.then
  call void @_ZdlPv(ptr noundef %26) #17
  br label %delete.end

delete.end:                                       ; preds = %delete.notnull, %if.then
  br label %if.end

if.end:                                           ; preds = %delete.end, %land.lhs.true, %catch
  %_data24 = getelementptr inbounds %"class.Imf_3_2::DeepScanLineInputFile", ptr %this1, i32 0, i32 1
  %27 = load ptr, ptr %_data24, align 8
  %tobool25 = icmp ne ptr %27, null
  br i1 %tobool25, label %if.then26, label %if.end31

if.then26:                                        ; preds = %if.end
  %_data27 = getelementptr inbounds %"class.Imf_3_2::DeepScanLineInputFile", ptr %this1, i32 0, i32 1
  %28 = load ptr, ptr %_data27, align 8
  %isnull28 = icmp eq ptr %28, null
  br i1 %isnull28, label %delete.end30, label %delete.notnull29

delete.notnull29:                                 ; preds = %if.then26
  call void @_ZN7Imf_3_221DeepScanLineInputFile4DataD1Ev(ptr noundef nonnull align 8 dereferenceable(513) %28) #3
  call void @_ZdlPv(ptr noundef %28) #17
  br label %delete.end30

delete.end30:                                     ; preds = %delete.notnull29, %if.then26
  br label %if.end31

if.end31:                                         ; preds = %delete.end30, %if.end
  invoke void @__cxa_rethrow() #16
          to label %unreachable unwind label %lpad32

lpad32:                                           ; preds = %if.end31
  %29 = landingpad { ptr, i32 }
          cleanup
  %30 = extractvalue { ptr, i32 } %29, 0
  store ptr %30, ptr %exn.slot, align 8
  %31 = extractvalue { ptr, i32 } %29, 1
  store i32 %31, ptr %ehselector.slot, align 4
  invoke void @__cxa_end_catch()
          to label %invoke.cont33 unwind label %terminate.lpad

invoke.cont33:                                    ; preds = %lpad32
  br label %ehcleanup

try.cont:                                         ; preds = %invoke.cont17
  %_data34 = getelementptr inbounds %"class.Imf_3_2::DeepScanLineInputFile", ptr %this1, i32 0, i32 1
  %32 = load ptr, ptr %_data34, align 8
  %_streamData35 = getelementptr inbounds %"struct.Imf_3_2::DeepScanLineInputFile::Data", ptr %32, i32 0, i32 40
  %33 = load ptr, ptr %_streamData35, align 8
  %is36 = getelementptr inbounds %"struct.Imf_3_2::InputStreamMutex", ptr %33, i32 0, i32 1
  %34 = load ptr, ptr %is36, align 8
  %_data37 = getelementptr inbounds %"class.Imf_3_2::DeepScanLineInputFile", ptr %this1, i32 0, i32 1
  %35 = load ptr, ptr %_data37, align 8
  %lineOrder = getelementptr inbounds %"struct.Imf_3_2::DeepScanLineInputFile::Data", ptr %35, i32 0, i32 5
  %36 = load i32, ptr %lineOrder, align 8
  %_data38 = getelementptr inbounds %"class.Imf_3_2::DeepScanLineInputFile", ptr %this1, i32 0, i32 1
  %37 = load ptr, ptr %_data38, align 8
  %lineOffsets = getelementptr inbounds %"struct.Imf_3_2::DeepScanLineInputFile::Data", ptr %37, i32 0, i32 11
  %_data39 = getelementptr inbounds %"class.Imf_3_2::DeepScanLineInputFile", ptr %this1, i32 0, i32 1
  %38 = load ptr, ptr %_data39, align 8
  %fileIsComplete = getelementptr inbounds %"struct.Imf_3_2::DeepScanLineInputFile::Data", ptr %38, i32 0, i32 12
  invoke void @_ZN7Imf_3_212_GLOBAL__N_115readLineOffsetsERNS_7IStreamENS_9LineOrderERSt6vectorImSaImEERb(ptr noundef nonnull align 8 dereferenceable(40) %34, i32 noundef %36, ptr noundef nonnull align 8 dereferenceable(24) %lineOffsets, ptr noundef nonnull align 1 dereferenceable(1) %fileIsComplete)
          to label %invoke.cont40 unwind label %lpad

invoke.cont40:                                    ; preds = %try.cont
  ret void

ehcleanup:                                        ; preds = %invoke.cont33, %lpad2, %lpad
  call void @_ZN7Imf_3_216GenericInputFileD2Ev(ptr noundef nonnull align 8 dereferenceable(8) %this1) #3
  br label %eh.resume

eh.resume:                                        ; preds = %ehcleanup
  %exn41 = load ptr, ptr %exn.slot, align 8
  %sel = load i32, ptr %ehselector.slot, align 4
  %lpad.val = insertvalue { ptr, i32 } poison, ptr %exn41, 0
  %lpad.val42 = insertvalue { ptr, i32 } %lpad.val, i32 %sel, 1
  resume { ptr, i32 } %lpad.val42

terminate.lpad:                                   ; preds = %lpad32
  %39 = landingpad { ptr, i32 }
          catch ptr null
  %40 = extractvalue { ptr, i32 } %39, 0
  call void @__clang_call_terminate(ptr %40) #18
  unreachable

unreachable:                                      ; preds = %if.end31
  unreachable
}