; Function Attrs: mustprogress uwtable
define void @_ZN7Imf_3_221DeepScanLineInputFileC2ERKNS_6HeaderEPNS_7IStreamEii(ptr noundef nonnull align 8 dereferenceable(16) %this, ptr noundef nonnull align 8 dereferenceable(49) %header, ptr noundef %is, i32 noundef %version, i32 noundef %numThreads) unnamed_addr #3 align 2 personality ptr @__gxx_personality_v0 {
entry:
  tail call void @_ZN7Imf_3_216GenericInputFileC2Ev(ptr noundef nonnull align 8 dereferenceable(8) %this)
  store ptr getelementptr inbounds ({ [4 x ptr] }, ptr @_ZTVN7Imf_3_221DeepScanLineInputFileE, i64 0, i32 0, i64 2), ptr %this, align 8
  %_data = getelementptr inbounds i8, ptr %this, i64 8
  %call = invoke noalias noundef nonnull dereferenceable(520) ptr @_Znwm(i64 noundef 520) #22
          to label %invoke.cont unwind label %lpad

invoke.cont:                                      ; preds = %entry
  invoke void @_ZN7Imf_3_221DeepScanLineInputFile4DataC2Ei(ptr noundef nonnull align 8 dereferenceable(513) %call, i32 noundef %numThreads)
          to label %invoke.cont3 unwind label %lpad2

invoke.cont3:                                     ; preds = %invoke.cont
  store ptr %call, ptr %_data, align 8
  %call5 = invoke noalias noundef nonnull dereferenceable(56) ptr @_Znwm(i64 noundef 56) #22
          to label %invoke.cont4 unwind label %lpad

invoke.cont4:                                     ; preds = %invoke.cont3
  %_streamData = getelementptr inbounds i8, ptr %call, i64 504
  tail call void @llvm.memset.p0.i64(ptr noundef nonnull align 8 dereferenceable(56) %call5, i8 0, i64 56, i1 false)
  store ptr %call5, ptr %_streamData, align 8
  %_deleteStream = getelementptr inbounds i8, ptr %call, i64 512
  store i8 0, ptr %_deleteStream, align 8
  %is10 = getelementptr inbounds i8, ptr %call5, i64 40
  store ptr %is, ptr %is10, align 8
  %vtable = load ptr, ptr %is, align 8
  %vfn = getelementptr inbounds i8, ptr %vtable, i64 16
  %0 = load ptr, ptr %vfn, align 8
  %call12 = invoke noundef zeroext i1 %0(ptr noundef nonnull align 8 dereferenceable(40) %is)
          to label %invoke.cont11 unwind label %lpad

invoke.cont11:                                    ; preds = %invoke.cont4
  %1 = load ptr, ptr %_data, align 8
  %memoryMapped = getelementptr inbounds i8, ptr %1, i64 384
  %frombool = zext i1 %call12 to i8
  store i8 %frombool, ptr %memoryMapped, align 8
  %2 = load ptr, ptr %_data, align 8
  %version15 = getelementptr inbounds i8, ptr %2, i64 96
  store i32 %version, ptr %version15, align 8
  invoke void @_ZN7Imf_3_221DeepScanLineInputFile10initializeERKNS_6HeaderE(ptr noundef nonnull align 8 dereferenceable(16) %this, ptr noundef nonnull align 8 dereferenceable(49) %header)
          to label %try.cont unwind label %lpad16

lpad:                                             ; preds = %try.cont, %invoke.cont4, %invoke.cont3, %entry
  %3 = landingpad { ptr, i32 }
          cleanup
  br label %ehcleanup

lpad2:                                            ; preds = %invoke.cont
  %4 = landingpad { ptr, i32 }
          cleanup
  tail call void @_ZdlPv(ptr noundef nonnull %call) #24
  br label %ehcleanup

lpad16:                                           ; preds = %invoke.cont11
  %5 = landingpad { ptr, i32 }
          catch ptr null
  %6 = extractvalue { ptr, i32 } %5, 0
  %7 = tail call ptr @__cxa_begin_catch(ptr %6) #21
  %8 = load ptr, ptr %_data, align 8
  %tobool.not = icmp eq ptr %8, null
  br i1 %tobool.not, label %if.end31, label %land.lhs.true

land.lhs.true:                                    ; preds = %lpad16
  %_streamData20 = getelementptr inbounds i8, ptr %8, i64 504
  %9 = load ptr, ptr %_streamData20, align 8
  %tobool21.not = icmp eq ptr %9, null
  br i1 %tobool21.not, label %delete.notnull29, label %if.end

if.end:                                           ; preds = %land.lhs.true
  tail call void @_ZdlPv(ptr noundef nonnull %9) #24
  %.pr.pre = load ptr, ptr %_data, align 8
  %tobool25.not = icmp eq ptr %.pr.pre, null
  br i1 %tobool25.not, label %if.end31, label %delete.notnull29

delete.notnull29:                                 ; preds = %land.lhs.true, %if.end
  %.pr9 = phi ptr [ %.pr.pre, %if.end ], [ %8, %land.lhs.true ]
  tail call void @_ZN7Imf_3_221DeepScanLineInputFile4DataD2Ev(ptr noundef nonnull align 8 dereferenceable(513) %.pr9) #21
  tail call void @_ZdlPv(ptr noundef nonnull %.pr9) #24
  br label %if.end31

if.end31:                                         ; preds = %lpad16, %delete.notnull29, %if.end
  invoke void @__cxa_rethrow() #25
          to label %unreachable unwind label %lpad32

lpad32:                                           ; preds = %if.end31
  %10 = landingpad { ptr, i32 }
          cleanup
  invoke void @__cxa_end_catch()
          to label %ehcleanup unwind label %terminate.lpad

try.cont:                                         ; preds = %invoke.cont11
  %11 = load ptr, ptr %_data, align 8
  %_streamData35 = getelementptr inbounds i8, ptr %11, i64 504
  %12 = load ptr, ptr %_streamData35, align 8
  %is36 = getelementptr inbounds i8, ptr %12, i64 40
  %13 = load ptr, ptr %is36, align 8
  %lineOrder = getelementptr inbounds i8, ptr %11, i64 208
  %14 = load i32, ptr %lineOrder, align 8
  %lineOffsets = getelementptr inbounds i8, ptr %11, i64 232
  %fileIsComplete = getelementptr inbounds i8, ptr %11, i64 256
  invoke fastcc void @_ZN7Imf_3_212_GLOBAL__N_115readLineOffsetsERNS_7IStreamENS_9LineOrderERSt6vectorImSaImEERb(ptr noundef nonnull align 8 dereferenceable(40) %13, i32 noundef %14, ptr noundef nonnull align 8 dereferenceable(24) %lineOffsets, ptr noundef nonnull align 1 dereferenceable(1) %fileIsComplete)
          to label %invoke.cont40 unwind label %lpad

invoke.cont40:                                    ; preds = %try.cont
  ret void

ehcleanup:                                        ; preds = %lpad32, %lpad2, %lpad
  %.pn = phi { ptr, i32 } [ %3, %lpad ], [ %10, %lpad32 ], [ %4, %lpad2 ]
  tail call void @_ZN7Imf_3_216GenericInputFileD2Ev(ptr noundef nonnull align 8 dereferenceable(8) %this) #21
  resume { ptr, i32 } %.pn

terminate.lpad:                                   ; preds = %lpad32
  %15 = landingpad { ptr, i32 }
          catch ptr null
  %16 = extractvalue { ptr, i32 } %15, 0
  tail call void @__clang_call_terminate(ptr %16) #23
  unreachable

unreachable:                                      ; preds = %if.end31
  unreachable
}